libaspell.so.15:_Z19pspell_aspell_dummyv
libaspell.so.15:_ZN7acommon10BetterList12set_cur_rankEv
libaspell.so.15:_ZN7acommon10BetterList17set_best_from_curEv
libaspell.so.15:_ZN7acommon10BetterList4initEv
libaspell.so.15:_ZN7acommon10BetterListC1Ev
libaspell.so.15:_ZN7acommon10BetterListC2Ev
libaspell.so.15:_ZN7acommon10BetterSize12set_cur_rankEv
libaspell.so.15:_ZN7acommon10BetterSize17set_best_from_curEv
libaspell.so.15:_ZN7acommon10BetterSize4initEv
libaspell.so.15:_ZN7acommon10CharLookup5resetEv
libaspell.so.15:_ZN7acommon10CharLookup6insertEcc
libaspell.so.15:_ZN7acommon10FilterMode11MagicString12hasExtensionERKNS_6StringE
libaspell.so.15:_ZN7acommon10FilterMode11MagicString12remExtensionERKNS_6StringE
libaspell.so.15:_ZN7acommon10FilterMode11MagicString9matchFileEP8_IO_FILERKNS_6StringE
libaspell.so.15:_ZN7acommon10FilterMode11MagicString9testMagicEP8_IO_FILERNS_6StringERKS4_
libaspell.so.15:_ZN7acommon10FilterMode14lockFileToModeERKNS_6StringEP8_IO_FILE
libaspell.so.15:_ZN7acommon10FilterMode16addModeExtensionERKNS_6StringES1_
libaspell.so.15:_ZN7acommon10FilterMode16remModeExtensionERKNS_6StringES1_
libaspell.so.15:_ZN7acommon10FilterMode5buildERNS_7FStreamEiPKc
libaspell.so.15:_ZN7acommon10FilterMode6expandEPNS_6ConfigE
libaspell.so.15:_ZN7acommon10FilterModeC1ERKNS_6StringE
libaspell.so.15:_ZN7acommon10FilterModeC2ERKNS_6StringE
libaspell.so.15:_ZN7acommon10FilterModeD1Ev
libaspell.so.15:_ZN7acommon10FilterModeD2Ev
libaspell.so.15:_ZN7acommon10NormTables7get_newERKNS_6StringEPKNS_6ConfigE
libaspell.so.15:_ZN7acommon10NormTablesD0Ev
libaspell.so.15:_ZN7acommon10NormTablesD1Ev
libaspell.so.15:_ZN7acommon10NormTablesD2Ev
libaspell.so.15:_ZN7acommon10StringList3addERKNS_10ParmStringE
libaspell.so.15:_ZN7acommon10StringList4copyERKS0_
libaspell.so.15:_ZN7acommon10StringList5clearEv
libaspell.so.15:_ZN7acommon10StringList6assignEPKS0_
libaspell.so.15:_ZN7acommon10StringList6removeERKNS_10ParmStringE
libaspell.so.15:_ZN7acommon10StringList7destroyEv
libaspell.so.15:_ZN7acommon10new_configEv
libaspell.so.15:_ZN7acommon11PathBrowser4nextEv
libaspell.so.15:_ZN7acommon11PathBrowserC1ERKNS_10StringListEPKc
libaspell.so.15:_ZN7acommon11PathBrowserC2ERKNS_10StringListEPKc
libaspell.so.15:_ZN7acommon11PathBrowserD1Ev
libaspell.so.15:_ZN7acommon11PathBrowserD2Ev
libaspell.so.15:_ZN7acommon11ToUniLookup5resetEv
libaspell.so.15:_ZN7acommon11ToUniLookup6insertEcj
libaspell.so.15:_ZN7acommon11file_existsENS_10ParmStringE
libaspell.so.15:_ZN7acommon11get_nb_lineERNS_7IStreamERNS_6StringE
libaspell.so.15:_ZN7acommon11new_spellerEPNS_6ConfigE
libaspell.so.15:_ZN7acommon11remove_fileENS_10ParmStringE
libaspell.so.15:_ZN7acommon11rename_fileENS_10ParmStringES0_
libaspell.so.15:_ZN7acommon11reset_cacheEPKc
libaspell.so.15:_ZN7acommon12CanHaveErrorC1EPNS_5ErrorE
libaspell.so.15:_ZN7acommon12CanHaveErrorC1ERKS0_
libaspell.so.15:_ZN7acommon12CanHaveErrorC2EPNS_5ErrorE
libaspell.so.15:_ZN7acommon12CanHaveErrorC2ERKS0_
libaspell.so.15:_ZN7acommon12CanHaveErrorD0Ev
libaspell.so.15:_ZN7acommon12CanHaveErrorD1Ev
libaspell.so.15:_ZN7acommon12CanHaveErrorD2Ev
libaspell.so.15:_ZN7acommon12CanHaveErroraSERKS0_
libaspell.so.15:_ZN7acommon12DictInfoList4fillERNS_13MDInfoListAllEPNS_6ConfigE
libaspell.so.15:_ZN7acommon12DictInfoList5clearEv
libaspell.so.15:_ZN7acommon12DictInfoList9proc_fileERNS_13MDInfoListAllEPNS_6ConfigEPKcS6_jPKNS_10ModuleInfoE
libaspell.so.15:_ZN7acommon12FilterHandleD1Ev
libaspell.so.15:_ZN7acommon12FilterHandleD2Ev
libaspell.so.15:_ZN7acommon12PosibErrBase3delEv
libaspell.so.15:_ZN7acommon12PosibErrBase3setEPKNS_9ErrorInfoENS_10ParmStringES4_S4_S4_
libaspell.so.15:_ZN7acommon12PosibErrBase7releaseEv
libaspell.so.15:_ZN7acommon12PosibErrBase9with_fileENS_10ParmStringEi
libaspell.so.15:_ZN7acommon12combine_listERNS_6StringERKNS_10StringListE
libaspell.so.15:_ZN7acommon12getdata_pairERNS_7IStreamERNS_8DataPairERNS_6StringE
libaspell.so.15:_ZN7acommon12setup_filterERNS_6FilterEPNS_6ConfigEbbb
libaspell.so.15:_ZN7acommon13BetterVariety12set_cur_rankEv
libaspell.so.15:_ZN7acommon13BetterVariety17set_best_from_curEv
libaspell.so.15:_ZN7acommon13BetterVariety4initEv
libaspell.so.15:_ZN7acommon13FromUniLookup5resetEv
libaspell.so.15:_ZN7acommon13FromUniLookup6insertEjc
libaspell.so.15:_ZN7acommon13ListAddHelper3addERKNS_10ParmStringE
libaspell.so.15:_ZN7acommon13MDInfoListAll17fill_dict_aliasesEPNS_6ConfigE
libaspell.so.15:_ZN7acommon13MDInfoListAll17fill_helper_listsERKNS_10StringListE
libaspell.so.15:_ZN7acommon13MDInfoListAll4fillEPNS_6ConfigERNS_10StringListE
libaspell.so.15:_ZN7acommon13MDInfoListAll5clearEv
libaspell.so.15:_ZN7acommon13StringIStream11append_lineERNS_6StringEc
libaspell.so.15:_ZN7acommon13StringIStream4readEPvj
libaspell.so.15:_ZN7acommon13check_versionEPKc
libaspell.so.15:_ZN7acommon13fill_data_dirEPKNS_6ConfigERNS_6StringES4_
libaspell.so.15:_ZN7acommon13find_dict_extERKNS_6VectorINS_7DictExtEEERKNS_10ParmStringE
libaspell.so.15:_ZN7acommon13get_file_nameEPKc
libaspell.so.15:_ZN7acommon13new_tokenizerEPNS_7SpellerE
libaspell.so.15:_ZN7acommon13separate_listERKNS_10ParmStringERNS_16AddableContainerEb
libaspell.so.15:_ZN7acommon13truncate_fileERNS_7FStreamENS_10ParmStringE
libaspell.so.15:_ZN7acommon14FilterModeList7get_newERKNS_6StringEPKNS_6ConfigE
libaspell.so.15:_ZN7acommon14ModuleInfoList4fillERNS_13MDInfoListAllEPNS_6ConfigE
libaspell.so.15:_ZN7acommon14ModuleInfoList4findEPKcj
libaspell.so.15:_ZN7acommon14ModuleInfoList5clearEv
libaspell.so.15:_ZN7acommon14ModuleInfoList9proc_infoERNS_13MDInfoListAllEPNS_6ConfigEPKcjRNS_7IStreamE
libaspell.so.15:_ZN7acommon14TokenizerBasic7advanceEv
libaspell.so.15:_ZN7acommon14ascii_encodingERKNS_6ConfigERKNS_10ParmStringE
libaspell.so.15:_ZN7acommon14delete_spellerEPNS_7SpellerE
libaspell.so.15:_ZN7acommon14figure_out_dirENS_10ParmStringES0_
libaspell.so.15:_ZN7acommon14find_word_listEPNS_6ConfigE
libaspell.so.15:_ZN7acommon14new_string_mapEv
libaspell.so.15:_ZN7acommon14reload_filtersEPNS_7SpellerE
libaspell.so.15:_ZN7acommon14verify_versionEPKcS1_S1_
libaspell.so.15:_ZN7acommon15DocumentChecker14set_status_funEPFvPvNS_5TokenEiES1_
libaspell.so.15:_ZN7acommon15DocumentChecker16next_misspellingEv
libaspell.so.15:_ZN7acommon15DocumentChecker5resetEv
libaspell.so.15:_ZN7acommon15DocumentChecker5setupEPNS_9TokenizerEPNS_7SpellerEPNS_6FilterE
libaspell.so.15:_ZN7acommon15DocumentChecker7processEPKci
libaspell.so.15:_ZN7acommon15DocumentCheckerC1Ev
libaspell.so.15:_ZN7acommon15DocumentCheckerC2Ev
libaspell.so.15:_ZN7acommon15DocumentCheckerD0Ev
libaspell.so.15:_ZN7acommon15DocumentCheckerD1Ev
libaspell.so.15:_ZN7acommon15DocumentCheckerD2Ev
libaspell.so.15:_ZN7acommon15GlobalCacheBase10detach_allEv
libaspell.so.15:_ZN7acommon15GlobalCacheBase3addEPNS_9CacheableE
libaspell.so.15:_ZN7acommon15GlobalCacheBase3delEPNS_9CacheableE
libaspell.so.15:_ZN7acommon15GlobalCacheBase6detachEPNS_9CacheableE
libaspell.so.15:_ZN7acommon15GlobalCacheBase7releaseEPNS_9CacheableE
libaspell.so.15:_ZN7acommon15GlobalCacheBaseC1EPKc
libaspell.so.15:_ZN7acommon15GlobalCacheBaseC2EPKc
libaspell.so.15:_ZN7acommon15GlobalCacheBaseD1Ev
libaspell.so.15:_ZN7acommon15GlobalCacheBaseD2Ev
libaspell.so.15:_ZN7acommon15ListDefaultDump3addERKNS_10ParmStringE
libaspell.so.15:_ZN7acommon15ListDefaultDumpC1ERNS_7OStreamE
libaspell.so.15:_ZN7acommon15ListDefaultDumpC2ERNS_7OStreamE
libaspell.so.15:_ZN7acommon15new_string_listEv
libaspell.so.15:_ZN7acommon15remove_commentsERNS_6StringE
libaspell.so.15:_ZN7acommon16ItemizeTokenizer4nextEv
libaspell.so.15:_ZN7acommon16ItemizeTokenizerC1EPKc
libaspell.so.15:_ZN7acommon16ItemizeTokenizerC2EPKc
libaspell.so.15:_ZN7acommon16ItemizeTokenizerD1Ev
libaspell.so.15:_ZN7acommon16ItemizeTokenizerD2Ev
libaspell.so.15:_ZN7acommon16ModeNotifierImpl12item_updatedEPKNS_7KeyInfoERKNS_10ParmStringE
libaspell.so.15:_ZN7acommon16ModeNotifierImpl12list_updatedEPKNS_7KeyInfoE
libaspell.so.15:_ZN7acommon16ModeNotifierImpl16get_filter_modesEv
libaspell.so.15:_ZN7acommon16add_possible_dirENS_10ParmStringES0_
libaspell.so.15:_ZN7acommon16fix_encoding_strERKNS_10ParmStringERNS_6StringE
libaspell.so.15:_ZN7acommon16get_dict_aliasesEPNS_6ConfigE
libaspell.so.15:_ZN7acommon16load_all_filtersEPNS_6ConfigE
libaspell.so.15:_ZN7acommon16new_basic_configEv
libaspell.so.15:_ZN7acommon17MDInfoListofLists4findERKNS_10StringListE
libaspell.so.15:_ZN7acommon17MDInfoListofLists5clearEPNS_6ConfigE
libaspell.so.15:_ZN7acommon17MDInfoListofLists9get_listsEPNS_6ConfigE
libaspell.so.15:_ZN7acommon17MDInfoListofListsC1Ev
libaspell.so.15:_ZN7acommon17MDInfoListofListsC2Ev
libaspell.so.15:_ZN7acommon17MDInfoListofListsD1Ev
libaspell.so.15:_ZN7acommon17MDInfoListofListsD2Ev
libaspell.so.15:_ZN7acommon17available_filtersEPNS_6ConfigE
libaspell.so.15:_ZN7acommon17get_speller_classEPNS_6ConfigE
libaspell.so.15:_ZN7acommon17read_in_char_dataERKNS_6ConfigERKNS_10ParmStringERNS_11ToUniLookupERNS_13FromUniLookupE
libaspell.so.15:_ZN7acommon18ConfigFilterModule10end_optionEv
libaspell.so.15:_ZN7acommon18ConfigFilterModule7get_newERKNS_6StringEPKNS_6ConfigE
libaspell.so.15:_ZN7acommon18ConfigFilterModuleD0Ev
libaspell.so.15:_ZN7acommon18ConfigFilterModuleD1Ev
libaspell.so.15:_ZN7acommon18ConfigFilterModuleD2Ev
libaspell.so.15:_ZN7acommon18get_dict_file_nameEPKNS_8DictInfoERNS_6StringES4_
libaspell.so.15:_ZN7acommon18get_dict_info_listEPNS_6ConfigE
libaspell.so.15:_ZN7acommon18get_dynamic_filterEPNS_6ConfigERKNS_10ParmStringE
libaspell.so.15:_ZN7acommon18open_file_readlockERNS_7FStreamENS_10ParmStringE
libaspell.so.15:_ZN7acommon18release_cache_dataEPNS_15GlobalCacheBaseEPKNS_9CacheableE
libaspell.so.15:_ZN7acommon19DictInfoEnumeration4nextEv
libaspell.so.15:_ZN7acommon19DictInfoEnumeration6assignEPKS0_
libaspell.so.15:_ZN7acommon19get_standard_filterERKNS_10ParmStringE
libaspell.so.15:_ZN7acommon19open_file_writelockERNS_7FStreamENS_10ParmStringE
libaspell.so.15:_ZN7acommon20StringMapEnumeration4nextEv
libaspell.so.15:_ZN7acommon20StringMapEnumeration6assignEPKNS_21StringPairEnumerationE
libaspell.so.15:_ZN7acommon20get_module_info_listEPNS_6ConfigE
libaspell.so.15:_ZN7acommon20internal_new_convertERKNS_6ConfigENS_10ParmStringES3_bNS_9NormalizeE
libaspell.so.15:_ZN7acommon20new_document_checkerEPNS_7SpellerE
libaspell.so.15:_ZN7acommon20setup_static_filtersEPNS_6ConfigE
libaspell.so.15:_ZN7acommon21ModuleInfoEnumeration4nextEv
libaspell.so.15:_ZN7acommon21ModuleInfoEnumeration6assignEPKS0_
libaspell.so.15:_ZN7acommon21StringListEnumeration6assignEPKNS_17StringEnumerationE
libaspell.so.15:_ZN7acommon21activate_filter_modesEPNS_6ConfigE
libaspell.so.15:_ZN7acommon21get_modification_timeERNS_7FStreamE
libaspell.so.15:_ZN7acommon22available_filter_modesEPNS_6ConfigE
libaspell.so.15:_ZN7acommon23set_mode_from_extensionEPNS_6ConfigENS_10ParmStringEP8_IO_FILE
libaspell.so.15:_ZN7acommon4initENS_10ParmStringERNS_8DataPairERNS_6StringE
libaspell.so.15:_ZN7acommon5ErrorC1ERKS0_
libaspell.so.15:_ZN7acommon5ErrorC2ERKS0_
libaspell.so.15:_ZN7acommon5ErrorD1Ev
libaspell.so.15:_ZN7acommon5ErrorD2Ev
libaspell.so.15:_ZN7acommon5ErroraSERKS0_
libaspell.so.15:_ZN7acommon5MBLen5setupERKNS_6ConfigERKNS_10ParmStringE
libaspell.so.15:_ZN7acommon5MBLenclEPKcS2_
libaspell.so.15:_ZN7acommon5splitERNS_8DataPairE
libaspell.so.15:_ZN7acommon6Better12better_matchENS_8IsBetterE
libaspell.so.15:_ZN7acommon6BetterD0Ev
libaspell.so.15:_ZN7acommon6BetterD1Ev
libaspell.so.15:_ZN7acommon6BetterD2Ev
libaspell.so.15:_ZN7acommon6Config10commit_allEPNS_6VectorIiEEPKc
libaspell.so.15:_ZN7acommon6Config12add_notifierEPNS_8NotifierE
libaspell.so.15:_ZN7acommon6Config12read_in_fileERKNS_10ParmStringE
libaspell.so.15:_ZN7acommon6Config14read_in_stringERKNS_10ParmStringEPKc
libaspell.so.15:_ZN7acommon6Config15remove_notifierEPKNS_8NotifierE
libaspell.so.15:_ZN7acommon6Config15write_to_streamERNS_7OStreamEb
libaspell.so.15:_ZN7acommon6Config16read_in_settingsEPKS0_
libaspell.so.15:_ZN7acommon6Config16replace_internalERKNS_10ParmStringES3_
libaspell.so.15:_ZN7acommon6Config16replace_notifierEPKNS_8NotifierEPS1_
libaspell.so.15:_ZN7acommon6Config17lang_config_mergeERKS0_iRKNS_10ParmStringE
libaspell.so.15:_ZN7acommon6Config18set_filter_modulesEPKNS_12ConfigModuleES3_
libaspell.so.15:_ZN7acommon6Config19set_committed_stateEb
libaspell.so.15:_ZN7acommon6Config3delEv
libaspell.so.15:_ZN7acommon6Config3setEPNS0_5EntryEb
libaspell.so.15:_ZN7acommon6Config4copyERKS0_
libaspell.so.15:_ZN7acommon6Config5mergeERKS0_
libaspell.so.15:_ZN7acommon6Config6assignEPKS0_
libaspell.so.15:_ZN7acommon6Config6commitEPNS0_5EntryEPNS_4ConvE
libaspell.so.15:_ZN7acommon6Config6removeERKNS_10ParmStringE
libaspell.so.15:_ZN7acommon6Config7read_inERNS_7IStreamERKNS_10ParmStringE
libaspell.so.15:_ZN7acommon6Config7replaceERKNS_10ParmStringES3_
libaspell.so.15:_ZN7acommon6Config9base_nameEPKcPNS0_6ActionE
libaspell.so.15:_ZN7acommon6Config9set_extraEPKNS_7KeyInfoES3_
libaspell.so.15:_ZN7acommon6ConfigC1ERKNS_10ParmStringEPKNS_7KeyInfoES6_
libaspell.so.15:_ZN7acommon6ConfigC1ERKS0_
libaspell.so.15:_ZN7acommon6ConfigC2ERKNS_10ParmStringEPKNS_7KeyInfoES6_
libaspell.so.15:_ZN7acommon6ConfigC2ERKS0_
libaspell.so.15:_ZN7acommon6ConfigD0Ev
libaspell.so.15:_ZN7acommon6ConfigD1Ev
libaspell.so.15:_ZN7acommon6ConfigD2Ev
libaspell.so.15:_ZN7acommon6ConfigaSERKS0_
libaspell.so.15:_ZN7acommon6Decode7get_newERKNS_6StringEPKNS_6ConfigE
libaspell.so.15:_ZN7acommon6Encode7get_newERKNS_6StringEPKNS_6ConfigE
libaspell.so.15:_ZN7acommon6Filter10add_filterEPNS_16IndividualFilterE
libaspell.so.15:_ZN7acommon6Filter5clearEv
libaspell.so.15:_ZN7acommon6Filter5resetEv
libaspell.so.15:_ZN7acommon6Filter7processERPNS_10FilterCharES3_
libaspell.so.15:_ZN7acommon6FilterC1Ev
libaspell.so.15:_ZN7acommon6FilterC2Ev
libaspell.so.15:_ZN7acommon6FilterD0Ev
libaspell.so.15:_ZN7acommon6FilterD1Ev
libaspell.so.15:_ZN7acommon6FilterD2Ev
libaspell.so.15:_ZN7acommon6String7vprintfEPKcP13__va_list_tag
libaspell.so.15:_ZN7acommon6String9reserve_iEm
libaspell.so.15:_ZN7acommon6StringaSERKNS_8PosibErrIS0_EE
libaspell.so.15:_ZN7acommon6escapeEPcPKcmS2_
libaspell.so.15:_ZN7acommon7Convert12init_norm_toERKNS_6ConfigERKNS_10ParmStringES6_
libaspell.so.15:_ZN7acommon7Convert14init_norm_fromERKNS_6ConfigERKNS_10ParmStringES6_
libaspell.so.15:_ZN7acommon7Convert15generic_convertEPKciRNS_6StringE
libaspell.so.15:_ZN7acommon7Convert4initERKNS_6ConfigERKNS_10ParmStringES6_
libaspell.so.15:_ZN7acommon7ConvertD1Ev
libaspell.so.15:_ZN7acommon7ConvertD2Ev
libaspell.so.15:_ZN7acommon7DictExtC1EPNS_10ModuleInfoEPKc
libaspell.so.15:_ZN7acommon7DictExtC2EPNS_10ModuleInfoEPKc
libaspell.so.15:_ZN7acommon7FStream11append_lineERNS_6StringEc
libaspell.so.15:_ZN7acommon7FStream4openERKNS_10ParmStringEPKc
libaspell.so.15:_ZN7acommon7FStream4readEPvj
libaspell.so.15:_ZN7acommon7FStream5closeEv
libaspell.so.15:_ZN7acommon7FStream5writeEPKvj
libaspell.so.15:_ZN7acommon7FStream5writeERKNS_10ParmStringE
libaspell.so.15:_ZN7acommon7FStream5writeEc
libaspell.so.15:_ZN7acommon7FStream6skipwsEv
libaspell.so.15:_ZN7acommon7FStream7file_noEv
libaspell.so.15:_ZN7acommon7FStream7restartEv
libaspell.so.15:_ZN7acommon7FStream8c_streamEv
libaspell.so.15:_ZN7acommon7FStreamlsERKNS_10ParmStringE
libaspell.so.15:_ZN7acommon7FStreamlsEd
libaspell.so.15:_ZN7acommon7FStreamlsEi
libaspell.so.15:_ZN7acommon7FStreamlsEj
libaspell.so.15:_ZN7acommon7FStreamrsERNS_6StringE
libaspell.so.15:_ZN7acommon7FStreamrsERi
libaspell.so.15:_ZN7acommon7FStreamrsERj
libaspell.so.15:_ZN7acommon7SpellerC1EPv
libaspell.so.15:_ZN7acommon7SpellerC2EPv
libaspell.so.15:_ZN7acommon7SpellerD0Ev
libaspell.so.15:_ZN7acommon7SpellerD1Ev
libaspell.so.15:_ZN7acommon7SpellerD2Ev
libaspell.so.15:_ZN7acommon7getlineERNS_7IStreamERNS_8DataPairERNS_6StringE
libaspell.so.15:_ZN7acommon7itemizeENS_10ParmStringERNS_16MutableContainerE
libaspell.so.15:_ZN7acommon8ListDump3addERKNS_10ParmStringE
libaspell.so.15:_ZN7acommon8ListDump5clearEv
libaspell.so.15:_ZN7acommon8ListDump6removeERKNS_10ParmStringE
libaspell.so.15:_ZN7acommon8ObjStack11setup_chunkEv
libaspell.so.15:_ZN7acommon8ObjStack4trimEv
libaspell.so.15:_ZN7acommon8ObjStack5resetEv
libaspell.so.15:_ZN7acommon8ObjStack9calc_sizeEv
libaspell.so.15:_ZN7acommon8ObjStack9new_chunkEv
libaspell.so.15:_ZN7acommon8ObjStackC1Emm
libaspell.so.15:_ZN7acommon8ObjStackC2Emm
libaspell.so.15:_ZN7acommon8ObjStackD1Ev
libaspell.so.15:_ZN7acommon8ObjStackD2Ev
libaspell.so.15:_ZN7acommon8need_dirENS_10ParmStringE
libaspell.so.15:_ZN7acommon8strtod_cEPKcPS1_
libaspell.so.15:_ZN7acommon8strtoi_cEPKcPS1_
libaspell.so.15:_ZN7acommon8to_lowerEPc
libaspell.so.15:_ZN7acommon8to_lowerERNS_6StringEPKc
libaspell.so.15:_ZN7acommon8unescapeEPcPKc
libaspell.so.15:_ZN7acommon9StringMap4copyERKS0_
libaspell.so.15:_ZN7acommon9Tokenizer5resetEPNS_10FilterCharES2_
libaspell.so.15:_ZN7acommon9TokenizerC1Ev
libaspell.so.15:_ZN7acommon9TokenizerC2Ev
libaspell.so.15:_ZN7acommon9TokenizerD0Ev
libaspell.so.15:_ZN7acommon9TokenizerD1Ev
libaspell.so.15:_ZN7acommon9TokenizerD2Ev
libaspell.so.15:_ZN7acommon9find_fileEPKNS_6ConfigEPKcRNS_6StringE
libaspell.so.15:_ZN7acommon9find_fileERKNS_10StringListERNS_6StringE
libaspell.so.15:_ZN7acommon9find_fileERNS_6StringERKS0_S3_S3_NS_10ParmStringES4_
libaspell.so.15:_ZN7acommon9find_fileERNS_6StringERKS0_S3_S3_PKc
libaspell.so.15:_ZN7acommoneqERKNS_10StringListES2_
libaspell.so.15:_ZN7acommoneqERKNS_7ConvertES2_
libaspell.so.15:_ZN7acommonltERKNS_12DictInfoNodeES2_
libaspell.so.15:_ZN8aspeller10CleanAffixC1EPKNS_8LanguageEPN7acommon7OStreamE
libaspell.so.15:_ZN8aspeller10CleanAffixC2EPKNS_8LanguageEPN7acommon7OStreamE
libaspell.so.15:_ZN8aspeller10CleanAffixclERKN7acommon10ParmStringEPc
libaspell.so.15:_ZN8aspeller10Dictionary10check_langEN7acommon10ParmStringE
libaspell.so.15:_ZN8aspeller10Dictionary11remove_replEN7acommon10ParmStringES2_
libaspell.so.15:_ZN8aspeller10Dictionary11synchronizeEv
libaspell.so.15:_ZN8aspeller10Dictionary13save_noupdateEv
libaspell.so.15:_ZN8aspeller10Dictionary13set_file_nameEN7acommon10ParmStringE
libaspell.so.15:_ZN8aspeller10Dictionary14set_check_langEN7acommon10ParmStringERNS1_6ConfigE
libaspell.so.15:_ZN8aspeller10Dictionary16update_file_infoERN7acommon7FStreamE
libaspell.so.15:_ZN8aspeller10Dictionary2IdC1EPS0_RKNS0_8FileNameE
libaspell.so.15:_ZN8aspeller10Dictionary2IdC2EPS0_RKNS0_8FileNameE
libaspell.so.15:_ZN8aspeller10Dictionary3addEN7acommon10ParmStringE
libaspell.so.15:_ZN8aspeller10Dictionary3addEN7acommon10ParmStringES2_
libaspell.so.15:_ZN8aspeller10Dictionary4loadEN7acommon10ParmStringERNS1_6ConfigEPNS_8DictListEPNS_11SpellerImplE
libaspell.so.15:_ZN8aspeller10Dictionary5clearEv
libaspell.so.15:_ZN8aspeller10Dictionary5mergeEN7acommon10ParmStringE
libaspell.so.15:_ZN8aspeller10Dictionary6attachERKNS_8LanguageE
libaspell.so.15:_ZN8aspeller10Dictionary6removeEN7acommon10ParmStringE
libaspell.so.15:_ZN8aspeller10Dictionary7save_asEN7acommon10ParmStringE
libaspell.so.15:_ZN8aspeller10Dictionary8FileName3setEN7acommon10ParmStringE
libaspell.so.15:_ZN8aspeller10Dictionary8FileName4copyERKS1_
libaspell.so.15:_ZN8aspeller10Dictionary8FileName5clearEv
libaspell.so.15:_ZN8aspeller10Dictionary8add_replEN7acommon10ParmStringES2_
libaspell.so.15:_ZN8aspeller10Dictionary8add_replEN7acommon10ParmStringES2_S2_
libaspell.so.15:_ZN8aspeller10DictionaryC1ENS0_9BasicTypeEPKc
libaspell.so.15:_ZN8aspeller10DictionaryC2ENS0_9BasicTypeEPKc
libaspell.so.15:_ZN8aspeller10DictionaryD0Ev
libaspell.so.15:_ZN8aspeller10DictionaryD1Ev
libaspell.so.15:_ZN8aspeller10DictionaryD2Ev
libaspell.so.15:_ZN8aspeller10new_phonetERKN7acommon6StringERNS0_4ConvEPKNS_8LanguageE
libaspell.so.15:_ZN8aspeller11SpellerDictC1EPNS_10DictionaryE
libaspell.so.15:_ZN8aspeller11SpellerDictC1EPNS_10DictionaryERKN7acommon6ConfigENS_9SpecialIdE
libaspell.so.15:_ZN8aspeller11SpellerDictC2EPNS_10DictionaryE
libaspell.so.15:_ZN8aspeller11SpellerDictC2EPNS_10DictionaryERKN7acommon6ConfigENS_9SpecialIdE
libaspell.so.15:_ZN8aspeller11SpellerImpl11check_affixEN7acommon10ParmStringERNS1_9CheckInfoEPNS_9GuessInfoE
libaspell.so.15:_ZN8aspeller11SpellerImpl12check_simpleEN7acommon10ParmStringERNS_9WordEntryE
libaspell.so.15:_ZN8aspeller11SpellerImpl13clear_sessionEv
libaspell.so.15:_ZN8aspeller11SpellerImpl14add_to_sessionEN7acommon13MutableStringE
libaspell.so.15:_ZN8aspeller11SpellerImpl15add_to_personalEN7acommon13MutableStringE
libaspell.so.15:_ZN8aspeller11SpellerImpl15setup_tokenizerEPN7acommon9TokenizerE
libaspell.so.15:_ZN8aspeller11SpellerImpl17store_replacementEN7acommon13MutableStringES2_
libaspell.so.15:_ZN8aspeller11SpellerImpl17store_replacementERKN7acommon6StringES4_b
libaspell.so.15:_ZN8aspeller11SpellerImpl19save_all_word_listsEv
libaspell.so.15:_ZN8aspeller11SpellerImpl5checkEPcS1_bjPN7acommon9CheckInfoEPNS_9GuessInfoE
libaspell.so.15:_ZN8aspeller11SpellerImpl5setupEPN7acommon6ConfigE
libaspell.so.15:_ZN8aspeller11SpellerImpl7suggestEN7acommon13MutableStringE
libaspell.so.15:_ZN8aspeller11SpellerImpl8add_dictEPNS_11SpellerDictE
libaspell.so.15:_ZN8aspeller11SpellerImpl8to_lowerEPc
libaspell.so.15:_ZN8aspeller11SpellerImplC1Ev
libaspell.so.15:_ZN8aspeller11SpellerImplC2Ev
libaspell.so.15:_ZN8aspeller11SpellerImplD0Ev
libaspell.so.15:_ZN8aspeller11SpellerImplD1Ev
libaspell.so.15:_ZN8aspeller11SpellerImplD2Ev
libaspell.so.15:_ZN8aspeller12SuggestParms22set_original_word_sizeEi
libaspell.so.15:_ZN8aspeller12SuggestParms3setEN7acommon10ParmStringEPNS_11SpellerImplE
libaspell.so.15:_ZN8aspeller12add_data_setEN7acommon10ParmStringERNS0_6ConfigEPNS_8DictListEPNS_11SpellerImplES1_j
libaspell.so.15:_ZN8aspeller12new_languageERKN7acommon6ConfigERKNS0_10ParmStringE
libaspell.so.15:_ZN8aspeller13edit_distanceEN7acommon10ParmStringES1_RKNS_19EditDistanceWeightsE
libaspell.so.15:_ZN8aspeller13find_languageERN7acommon6ConfigE
libaspell.so.15:_ZN8aspeller13new_affix_mgrEN7acommon10ParmStringERNS0_4ConvEPKNS_8LanguageE
libaspell.so.15:_ZN8aspeller14check_if_validERKNS_8LanguageERKN7acommon10ParmStringE
libaspell.so.15:_ZN8aspeller14new_soundslikeEN7acommon10ParmStringERNS0_4ConvEPKNS_8LanguageE
libaspell.so.15:_ZN8aspeller14validate_affixERKNS_8LanguageERKN7acommon10ParmStringES6_
libaspell.so.15:_ZN8aspeller15get_clean_charsERKNS_8LanguageE
libaspell.so.15:_ZN8aspeller15open_affix_fileERKN7acommon6ConfigERNS0_7FStreamE
libaspell.so.15:_ZN8aspeller16WordListIterator3advEv
libaspell.so.15:_ZN8aspeller16WordListIterator4initERN7acommon6ConfigE
libaspell.so.15:_ZN8aspeller16WordListIteratorC1EPN7acommon17StringEnumerationEPKNS_8LanguageEPNS1_7OStreamE
libaspell.so.15:_ZN8aspeller16WordListIteratorC2EPN7acommon17StringEnumerationEPKNS_8LanguageEPNS1_7OStreamE
libaspell.so.15:_ZN8aspeller18get_stripped_charsERKNS_8LanguageE
libaspell.so.15:_ZN8aspeller18typo_edit_distanceEN7acommon10ParmStringES1_RKNS_20TypoEditDistanceInfoE
libaspell.so.15:_ZN8aspeller19limit_edit_distanceEPKcS1_iRKNS_19EditDistanceWeightsE
libaspell.so.15:_ZN8aspeller19new_default_suggestEPNS_11SpellerImplE
libaspell.so.15:_ZN8aspeller20TypoEditDistanceInfo7get_newEPKcPKN7acommon6ConfigEPKNS_8LanguageE
libaspell.so.15:_ZN8aspeller20limit1_edit_distanceEPKcS1_RKNS_19EditDistanceWeightsE
libaspell.so.15:_ZN8aspeller20limit2_edit_distanceEPKcS1_RKNS_19EditDistanceWeightsE
libaspell.so.15:_ZN8aspeller22new_default_multi_dictEv
libaspell.so.15:_ZN8aspeller25new_default_readonly_dictEv
libaspell.so.15:_ZN8aspeller25new_default_writable_dictEv
libaspell.so.15:_ZN8aspeller28create_default_readonly_dictEPN7acommon17StringEnumerationERNS0_6ConfigE
libaspell.so.15:_ZN8aspeller28new_default_replacement_dictEv
libaspell.so.15:_ZN8aspeller5setupERN7acommon8CachePtrIKNS_20TypoEditDistanceInfoEEEPKNS0_6ConfigEPKNS_8LanguageENS0_10ParmStringE
libaspell.so.15:_ZN8aspeller6Primes6resizeEm
libaspell.so.15:_ZN8aspeller6phonetEPKcPciRKNS_11PhonetParmsE
libaspell.so.15:_ZN8aspeller8AffixMgr10parse_fileEPKcRN7acommon4ConvE
libaspell.so.15:_ZN8aspeller8AffixMgr13build_pfxlistEPNS_8PfxEntryE
libaspell.so.15:_ZN8aspeller8AffixMgr13build_sfxlistEPNS_8SfxEntryE
libaspell.so.15:_ZN8aspeller8AffixMgr17process_pfx_orderEv
libaspell.so.15:_ZN8aspeller8AffixMgr17process_sfx_orderEv
libaspell.so.15:_ZN8aspeller8AffixMgr5setupEN7acommon10ParmStringERNS1_4ConvE
libaspell.so.15:_ZN8aspeller8AffixMgrC1EPKNS_8LanguageE
libaspell.so.15:_ZN8aspeller8AffixMgrC2EPKNS_8LanguageE
libaspell.so.15:_ZN8aspeller8AffixMgrD1Ev
libaspell.so.15:_ZN8aspeller8AffixMgrD2Ev
libaspell.so.15:_ZN8aspeller8Language5setupERKN7acommon6StringEPKNS1_6ConfigE
libaspell.so.15:_ZN8aspeller8SfxEntry5checkERKNS_10LookupInfoEN7acommon10ParmStringERNS4_9CheckInfoEPNS_9GuessInfoEiPNS_8AffEntryE
libaspell.so.15:_ZN8aspellereqERKNS_10Dictionary2IdES3_
libaspell.so.15:_ZNK7acommon10FilterMode8modeNameEv
libaspell.so.15:_ZNK7acommon10StringList5cloneEv
libaspell.so.15:_ZNK7acommon10StringList8elementsEv
libaspell.so.15:_ZNK7acommon12DictInfoList4sizeEv
libaspell.so.15:_ZNK7acommon12DictInfoList5emptyEv
libaspell.so.15:_ZNK7acommon12DictInfoList8elementsEv
libaspell.so.15:_ZNK7acommon12PosibErrBase10handle_errEv
libaspell.so.15:_ZNK7acommon14ModuleInfoList4sizeEv
libaspell.so.15:_ZNK7acommon14ModuleInfoList5emptyEv
libaspell.so.15:_ZNK7acommon14ModuleInfoList8elementsEv
libaspell.so.15:_ZNK7acommon19DictInfoEnumeration5cloneEv
libaspell.so.15:_ZNK7acommon19DictInfoEnumeration6at_endEv
libaspell.so.15:_ZNK7acommon20StringMapEnumeration5cloneEv
libaspell.so.15:_ZNK7acommon20StringMapEnumeration6at_endEv
libaspell.so.15:_ZNK7acommon21ModuleInfoEnumeration5cloneEv
libaspell.so.15:_ZNK7acommon21ModuleInfoEnumeration6at_endEv
libaspell.so.15:_ZNK7acommon21StringListEnumeration5cloneEv
libaspell.so.15:_ZNK7acommon5Error4is_aEPKNS_9ErrorInfoE
libaspell.so.15:_ZNK7acommon6Config11get_defaultEPKNS_7KeyInfoE
libaspell.so.15:_ZNK7acommon6Config11get_defaultERKNS_10ParmStringE
libaspell.so.15:_ZNK7acommon6Config11lookup_listEPKNS_7KeyInfoERNS_16MutableContainerEb
libaspell.so.15:_ZNK7acommon6Config12retrieve_anyERKNS_10ParmStringE
libaspell.so.15:_ZNK7acommon6Config12retrieve_intERKNS_10ParmStringE
libaspell.so.15:_ZNK7acommon6Config13retrieve_boolERKNS_10ParmStringE
libaspell.so.15:_ZNK7acommon6Config13retrieve_listERKNS_10ParmStringEPNS_16MutableContainerE
libaspell.so.15:_ZNK7acommon6Config17possible_elementsEbb
libaspell.so.15:_ZNK7acommon6Config4haveERKNS_10ParmStringE
libaspell.so.15:_ZNK7acommon6Config5cloneEv
libaspell.so.15:_ZNK7acommon6Config6lookupEPKc
libaspell.so.15:_ZNK7acommon6Config7keyinfoERKNS_10ParmStringE
libaspell.so.15:_ZNK7acommon6Config8retrieveERKNS_10ParmStringE
libaspell.so.15:_ZNK7acommon6Config9notifiersEv
libaspell.so.15:_ZNK7acommon9Cacheable4copyEv
libaspell.so.15:_ZNK7acommon9StringMap8elementsEv
libaspell.so.15:_ZNK8aspeller10Dictionary11repl_lookupEN7acommon10ParmStringERNS_9WordEntryE
libaspell.so.15:_ZNK8aspeller10Dictionary11repl_lookupERKNS_9WordEntryERS1_
libaspell.so.15:_ZNK8aspeller10Dictionary12clean_lookupEN7acommon10ParmStringERNS_9WordEntryE
libaspell.so.15:_ZNK8aspeller10Dictionary12dictionariesEv
libaspell.so.15:_ZNK8aspeller10Dictionary17detailed_elementsEv
libaspell.so.15:_ZNK8aspeller10Dictionary17soundslike_lookupEN7acommon10ParmStringERNS_9WordEntryE
libaspell.so.15:_ZNK8aspeller10Dictionary17soundslike_lookupERKNS_9WordEntryERS1_
libaspell.so.15:_ZNK8aspeller10Dictionary19soundslike_elementsEv
libaspell.so.15:_ZNK8aspeller10Dictionary4sizeEv
libaspell.so.15:_ZNK8aspeller10Dictionary5emptyEv
libaspell.so.15:_ZNK8aspeller10Dictionary6lookupEN7acommon10ParmStringEPKNS_16SensitiveCompareERNS_9WordEntryE
libaspell.so.15:_ZNK8aspeller10Dictionary8elementsEv
libaspell.so.15:_ZNK8aspeller10Dictionary9lang_nameEv
libaspell.so.15:_ZNK8aspeller10LookupInfo6lookupEN7acommon10ParmStringEPKNS_16SensitiveCompareEcRNS_9WordEntryEPNS_9GuessInfoE
libaspell.so.15:_ZNK8aspeller11SpellerImpl13num_wordlistsEv
libaspell.so.15:_ZNK8aspeller11SpellerImpl14main_word_listEv
libaspell.so.15:_ZNK8aspeller11SpellerImpl17session_word_listEv
libaspell.so.15:_ZNK8aspeller11SpellerImpl18personal_word_listEv
libaspell.so.15:_ZNK8aspeller11SpellerImpl6locateERKNS_10Dictionary2IdE
libaspell.so.15:_ZNK8aspeller11SpellerImpl9lang_nameEv
libaspell.so.15:_ZNK8aspeller11SpellerImpl9wordlistsEv
libaspell.so.15:_ZNK8aspeller12SuggestParms5cloneEv
libaspell.so.15:_ZNK8aspeller16SensitiveCompareclEPKcS2_
libaspell.so.15:_ZNK8aspeller6Primes8is_primeEm
libaspell.so.15:_ZNK8aspeller8AffixMgr11affix_checkERKNS_10LookupInfoEN7acommon10ParmStringERNS4_9CheckInfoEPNS_9GuessInfoE
libaspell.so.15:_ZNK8aspeller8AffixMgr11check_affixEN7acommon10ParmStringEc
libaspell.so.15:_ZNK8aspeller8AffixMgr12prefix_checkERKNS_10LookupInfoEN7acommon10ParmStringERNS4_9CheckInfoEPNS_9GuessInfoEb
libaspell.so.15:_ZNK8aspeller8AffixMgr12suffix_checkERKNS_10LookupInfoEN7acommon10ParmStringERNS4_9CheckInfoEPNS_9GuessInfoEiPNS_8AffEntryE
libaspell.so.15:_ZNK8aspeller8AffixMgr13expand_suffixEN7acommon10ParmStringEPKhRNS1_8ObjStackEiPhPPPNS_7WordAffES2_
libaspell.so.15:_ZNK8aspeller8AffixMgr5munchEN7acommon10ParmStringEPNS_9GuessInfoEb
libaspell.so.15:_ZNK8aspeller8AffixMgr6expandEN7acommon10ParmStringES2_RNS1_8ObjStackEi
libaspell.so.15:_ZNK8aspeller8Language11fake_expandERKN7acommon10ParmStringES4_RNS1_8ObjStackE
libaspell.so.15:_ZNK8aspeller8Language12case_patternEPKcj
libaspell.so.15:_ZNK8aspeller8Language12case_patternERKN7acommon10ParmStringE
libaspell.so.15:_ZNK8aspeller8Language13get_word_infoERKN7acommon10ParmStringE
libaspell.so.15:_ZNK8aspeller8Language17set_lang_defaultsERN7acommon6ConfigE
libaspell.so.15:_ZNK8aspeller8Language8fix_caseENS_11CasePatternEPKcRN7acommon6StringE
libaspell.so.15:_ZNK8aspeller8Language8fix_caseENS_11CasePatternEPcPKc
libaspell.so.15:_ZNK8aspeller8PfxEntry10applicableEN7acommon12SimpleStringE
libaspell.so.15:_ZNK8aspeller8PfxEntry3addEN7acommon12SimpleStringERNS1_8ObjStackE
libaspell.so.15:_ZNK8aspeller8PfxEntry5checkERKNS_10LookupInfoEPKNS_8AffixMgrEN7acommon10ParmStringERNS7_9CheckInfoEPNS_9GuessInfoEb
libaspell.so.15:_ZNK8aspeller8SfxEntry10applicableEN7acommon12SimpleStringE
libaspell.so.15:_ZNK8aspeller8SfxEntry3addEN7acommon12SimpleStringERNS1_8ObjStackEiS2_
libaspell.so.15:_ZNK8aspeller9WordEntry5writeERN7acommon7OStreamERKNS_8LanguageEPNS1_7ConvertE
libaspell.so.15:_ZThn16_N7acommon7FStream5writeEPKvj
libaspell.so.15:_ZThn16_N7acommon7FStream5writeERKNS_10ParmStringE
libaspell.so.15:_ZThn16_N7acommon7FStream5writeEc
libaspell.so.15:_ZThn40_N8aspeller10DictionaryD0Ev
libaspell.so.15:_ZThn40_N8aspeller10DictionaryD1Ev
libaspell.so.15:_ZThn40_NK8aspeller10Dictionary4sizeEv
libaspell.so.15:_ZThn40_NK8aspeller10Dictionary5emptyEv
libaspell.so.15:_ZThn40_NK8aspeller10Dictionary8elementsEv
libaspell.so.15:aspell_config_assign
libaspell.so.15:aspell_config_clone
libaspell.so.15:aspell_config_elements
libaspell.so.15:aspell_config_error
libaspell.so.15:aspell_config_error_message
libaspell.so.15:aspell_config_error_number
libaspell.so.15:aspell_config_get_default
libaspell.so.15:aspell_config_have
libaspell.so.15:aspell_config_keyinfo
libaspell.so.15:aspell_config_possible_elements
libaspell.so.15:aspell_config_remove
libaspell.so.15:aspell_config_replace
libaspell.so.15:aspell_config_retrieve
libaspell.so.15:aspell_config_retrieve_bool
libaspell.so.15:aspell_config_retrieve_int
libaspell.so.15:aspell_config_retrieve_list
libaspell.so.15:aspell_config_set_extra
libaspell.so.15:aspell_dict_info_enumeration_assign
libaspell.so.15:aspell_dict_info_enumeration_at_end
libaspell.so.15:aspell_dict_info_enumeration_clone
libaspell.so.15:aspell_dict_info_enumeration_next
libaspell.so.15:aspell_dict_info_list_elements
libaspell.so.15:aspell_dict_info_list_empty
libaspell.so.15:aspell_dict_info_list_size
libaspell.so.15:aspell_document_checker_error
libaspell.so.15:aspell_document_checker_error_message
libaspell.so.15:aspell_document_checker_error_number
libaspell.so.15:aspell_document_checker_filter
libaspell.so.15:aspell_document_checker_next_misspelling
libaspell.so.15:aspell_document_checker_process
libaspell.so.15:aspell_document_checker_reset
libaspell.so.15:aspell_error
libaspell.so.15:aspell_error_is_a
libaspell.so.15:aspell_error_message
libaspell.so.15:aspell_error_number
libaspell.so.15:aspell_filter_error
libaspell.so.15:aspell_filter_error_message
libaspell.so.15:aspell_filter_error_number
libaspell.so.15:aspell_gettext_init
libaspell.so.15:aspell_key_info_enumeration_assign
libaspell.so.15:aspell_key_info_enumeration_at_end
libaspell.so.15:aspell_key_info_enumeration_clone
libaspell.so.15:aspell_key_info_enumeration_next
libaspell.so.15:aspell_module_info_enumeration_assign
libaspell.so.15:aspell_module_info_enumeration_at_end
libaspell.so.15:aspell_module_info_enumeration_clone
libaspell.so.15:aspell_module_info_enumeration_next
libaspell.so.15:aspell_module_info_list_elements
libaspell.so.15:aspell_module_info_list_empty
libaspell.so.15:aspell_module_info_list_size
libaspell.so.15:aspell_mutable_container_add
libaspell.so.15:aspell_mutable_container_clear
libaspell.so.15:aspell_mutable_container_remove
libaspell.so.15:aspell_mutable_container_to_mutable_container
libaspell.so.15:aspell_reset_cache
libaspell.so.15:aspell_speller_add_to_personal
libaspell.so.15:aspell_speller_add_to_session
libaspell.so.15:aspell_speller_check
libaspell.so.15:aspell_speller_clear_session
libaspell.so.15:aspell_speller_config
libaspell.so.15:aspell_speller_error
libaspell.so.15:aspell_speller_error_message
libaspell.so.15:aspell_speller_error_number
libaspell.so.15:aspell_speller_main_word_list
libaspell.so.15:aspell_speller_personal_word_list
libaspell.so.15:aspell_speller_save_all_word_lists
libaspell.so.15:aspell_speller_session_word_list
libaspell.so.15:aspell_speller_store_replacement
libaspell.so.15:aspell_speller_suggest
libaspell.so.15:aspell_string_enumeration_assign
libaspell.so.15:aspell_string_enumeration_at_end
libaspell.so.15:aspell_string_enumeration_clone
libaspell.so.15:aspell_string_enumeration_next
libaspell.so.15:aspell_string_list_add
libaspell.so.15:aspell_string_list_assign
libaspell.so.15:aspell_string_list_clear
libaspell.so.15:aspell_string_list_clone
libaspell.so.15:aspell_string_list_elements
libaspell.so.15:aspell_string_list_empty
libaspell.so.15:aspell_string_list_remove
libaspell.so.15:aspell_string_list_size
libaspell.so.15:aspell_string_list_to_mutable_container
libaspell.so.15:aspell_string_map_add
libaspell.so.15:aspell_string_map_assign
libaspell.so.15:aspell_string_map_clear
libaspell.so.15:aspell_string_map_clone
libaspell.so.15:aspell_string_map_elements
libaspell.so.15:aspell_string_map_empty
libaspell.so.15:aspell_string_map_insert
libaspell.so.15:aspell_string_map_lookup
libaspell.so.15:aspell_string_map_remove
libaspell.so.15:aspell_string_map_replace
libaspell.so.15:aspell_string_map_size
libaspell.so.15:aspell_string_map_to_mutable_container
libaspell.so.15:aspell_string_pair_enumeration_assign
libaspell.so.15:aspell_string_pair_enumeration_at_end
libaspell.so.15:aspell_string_pair_enumeration_clone
libaspell.so.15:aspell_string_pair_enumeration_next
libaspell.so.15:aspell_word_list_elements
libaspell.so.15:aspell_word_list_empty
libaspell.so.15:aspell_word_list_size
libaspell.so.15:delete_aspell_can_have_error
libaspell.so.15:delete_aspell_config
libaspell.so.15:delete_aspell_dict_info_enumeration
libaspell.so.15:delete_aspell_document_checker
libaspell.so.15:delete_aspell_filter
libaspell.so.15:delete_aspell_key_info_enumeration
libaspell.so.15:delete_aspell_module_info_enumeration
libaspell.so.15:delete_aspell_speller
libaspell.so.15:delete_aspell_string_enumeration
libaspell.so.15:delete_aspell_string_list
libaspell.so.15:delete_aspell_string_map
libaspell.so.15:delete_aspell_string_pair_enumeration
libaspell.so.15:get_aspell_dict_info_list
libaspell.so.15:get_aspell_module_info_list
libaspell.so.15:libaspell_speller_default_LTX_new_speller_class
libaspell.so.15:new_aspell_config
libaspell.so.15:new_aspell_document_checker
libaspell.so.15:new_aspell_speller
libaspell.so.15:new_aspell_string_list
libaspell.so.15:new_aspell_string_map
libaspell.so.15:new_aspell_url_filter
libaspell.so.15:to_aspell_document_checker
libaspell.so.15:to_aspell_filter
libaspell.so.15:to_aspell_speller
libpspell.so.15:_Z19pspell_aspell_dummyv
